; Function Attrs: mustprogress nounwind uwtable
define dso_local void @_ZN5vcpkg4Json5ValueD2Ev(ptr noundef nonnull align 8 dereferenceable(8) %0) unnamed_addr #1 align 2 {
  %2 = load ptr, ptr %0, align 8
  %.not.i = icmp eq ptr %2, null
  br i1 %.not.i, label %_ZNSt10unique_ptrIN5vcpkg4Json4impl9ValueImplESt14default_deleteIS3_EED2Ev.exit, label %3

3:                                                ; preds = %1
  tail call void @_ZNKSt14default_deleteIN5vcpkg4Json4impl9ValueImplEEclEPS3_(ptr noundef nonnull align 1 dereferenceable(1) %0, ptr noundef nonnull %2)
  br label %_ZNSt10unique_ptrIN5vcpkg4Json4impl9ValueImplESt14default_deleteIS3_EED2Ev.exit

_ZNSt10unique_ptrIN5vcpkg4Json4impl9ValueImplESt14default_deleteIS3_EED2Ev.exit: ; preds = %1, %3
  store ptr null, ptr %0, align 8
  ret void
}